; ModuleID = '29/1286.c'
source_filename = "29/1286.c"
target datalayout = "e-m:e-p270:32:32-p271:32:32-p272:64:64-i64:64-f80:128-n8:16:32:64-S128"
target triple = "x86_64-pc-linux-gnu"

@.str = private unnamed_addr constant [3 x i8] c"%d\00", align 1
@.str.1 = private unnamed_addr constant [7 x i8] c"%.3lf\0A\00", align 1

; Function Attrs: noinline nounwind uwtable
define dso_local i32 @main() #0 {
  %1 = alloca i32, align 4
  %2 = alloca i32, align 4
  %3 = alloca i32, align 4
  %4 = alloca double, align 8
  %5 = alloca i32, align 4
  %6 = alloca i8*, align 8
  %7 = alloca i64, align 8
  %8 = alloca i32, align 4
  %9 = alloca i32, align 4
  store i32 0, i32* %1, align 4
  %10 = call i32 (i8*, ...) @__isoc99_scanf(i8* getelementptr inbounds ([3 x i8], [3 x i8]* @.str, i64 0, i64 0), i32* %2)
  store i32 1, i32* %5, align 4
  br label %11

11:                                               ; preds = %76, %0
  %12 = load i32, i32* %5, align 4
  %13 = load i32, i32* %2, align 4
  %14 = icmp sle i32 %12, %13
  br i1 %14, label %15, label %79

15:                                               ; preds = %11
  %16 = call i32 (i8*, ...) @__isoc99_scanf(i8* getelementptr inbounds ([3 x i8], [3 x i8]* @.str, i64 0, i64 0), i32* %3)
  %17 = load i32, i32* %3, align 4
  %18 = add nsw i32 %17, 1
  %19 = zext i32 %18 to i64
  %20 = call i8* @llvm.stacksave()
  store i8* %20, i8** %6, align 8
  %21 = alloca i32, i64 %19, align 16
  store i64 %19, i64* %7, align 8
  store i32 0, i32* %8, align 4
  br label %22

22:                                               ; preds = %44, %15
  %23 = load i32, i32* %8, align 4
  %24 = load i32, i32* %3, align 4
  %25 = add nsw i32 %24, 1
  %26 = icmp slt i32 %23, %25
  br i1 %26, label %27, label %47

27:                                               ; preds = %22
  %28 = load i32, i32* %8, align 4
  %29 = sub nsw i32 %28, 1
  %30 = sext i32 %29 to i64
  %31 = getelementptr inbounds i32, i32* %21, i64 %30
  %32 = load i32, i32* %31, align 4
  %33 = load i32, i32* %8, align 4
  %34 = sub nsw i32 %33, 2
  %35 = sext i32 %34 to i64
  %36 = getelementptr inbounds i32, i32* %21, i64 %35
  %37 = load i32, i32* %36, align 4
  %38 = add nsw i32 %32, %37
  %39 = load i32, i32* %8, align 4
  %40 = sext i32 %39 to i64
  %41 = getelementptr inbounds i32, i32* %21, i64 %40
  store i32 %38, i32* %41, align 4
  %42 = getelementptr inbounds i32, i32* %21, i64 0
  store i32 1, i32* %42, align 16
  %43 = getelementptr inbounds i32, i32* %21, i64 1
  store i32 2, i32* %43, align 4
  br label %44

44:                                               ; preds = %27
  %45 = load i32, i32* %8, align 4
  %46 = add nsw i32 %45, 1
  store i32 %46, i32* %8, align 4
  br label %22

47:                                               ; preds = %22
  store double 0.000000e+00, double* %4, align 8
  store i32 1, i32* %9, align 4
  br label %48

48:                                               ; preds = %69, %47
  %49 = load i32, i32* %9, align 4
  %50 = load i32, i32* %3, align 4
  %51 = add nsw i32 %50, 1
  %52 = icmp slt i32 %49, %51
  br i1 %52, label %53, label %72

53:                                               ; preds = %48
  %54 = load i32, i32* %9, align 4
  %55 = sext i32 %54 to i64
  %56 = getelementptr inbounds i32, i32* %21, i64 %55
  %57 = load i32, i32* %56, align 4
  %58 = sitofp i32 %57 to double
  %59 = fmul double 1.000000e+00, %58
  %60 = load i32, i32* %9, align 4
  %61 = sub nsw i32 %60, 1
  %62 = sext i32 %61 to i64
  %63 = getelementptr inbounds i32, i32* %21, i64 %62
  %64 = load i32, i32* %63, align 4
  %65 = sitofp i32 %64 to double
  %66 = fdiv double %59, %65
  %67 = load double, double* %4, align 8
  %68 = fadd double %67, %66
  store double %68, double* %4, align 8
  br label %69

69:                                               ; preds = %53
  %70 = load i32, i32* %9, align 4
  %71 = add nsw i32 %70, 1
  store i32 %71, i32* %9, align 4
  br label %48

72:                                               ; preds = %48
  %73 = load double, double* %4, align 8
  %74 = call i32 (i8*, ...) @printf(i8* getelementptr inbounds ([7 x i8], [7 x i8]* @.str.1, i64 0, i64 0), double %73)
  %75 = load i8*, i8** %6, align 8
  call void @llvm.stackrestore(i8* %75)
  br label %76

76:                                               ; preds = %72
  %77 = load i32, i32* %5, align 4
  %78 = add nsw i32 %77, 1
  store i32 %78, i32* %5, align 4
  br label %11

79:                                               ; preds = %11
  ret i32 0
}

declare dso_local i32 @__isoc99_scanf(i8*, ...) #1

; Function Attrs: nounwind
declare i8* @llvm.stacksave() #2

declare dso_local i32 @printf(i8*, ...) #1

; Function Attrs: nounwind
declare void @llvm.stackrestore(i8*) #2


!llvm.module.flags = !{!0}
!llvm.ident = !{!1}

!0 = !{i32 1, !"wchar_size", i32 4}
!1 = !{!"clang version 10.0.0-4ubuntu1 "}
